ccopy_reg
_reconstructor
p1
(cRecreateDataGUISettings
RecreateDataGUISettings
p2
c__builtin__
object
p3
NtRp4
(dp5
S'min_score'
p6
I1
sS'mean_precision'
p7
S'0.0'
p8
sS'poss_vals'
p9
V1, 2, 3, 4, 5, 6, 7, 8, 9, 10
p10
sS'use_SD'
p11
I01
sS'variance_precision'
p12
S'.8'
p13
sS'check_vals'
p14
S''
sS'num_samples'
p15
I3
sS'debug'
p16
I1
sS'variance'
p17
S'1.4'
p18
sS'max_score'
p19
I10
sS'mean'
p20
S'5'
sb.