(iRecreateData
RecreateData
p1
(dp2
S'min_score'
p3
I1
sS'mean_precision'
p4
F0
sS'un_mut_num_samples'
p5
I3
sS'poss_vals'
p6
(lp7
I1
aI2
aI3
aI4
aI5
aI6
aI7
aI8
aI9
aI10
asS'variance_precision'
p8
F2.2400000000000007
sS'un_mut_variance'
p9
F2.6000000000000001
sS'sols'
p10
(dp11
(F5
F1
tp12
(lp13
(lp14
I0
aI0
aI0
aI1
aI1
aI1
aI0
aI0
aI0
aI0
aas(F5
F4
tp15
(lp16
(lp17
I0
aI0
aI1
aI0
aI1
aI0
aI1
aI0
aI0
aI0
aas(F5
F3
tp18
(lp19
(lp20
I0
aI0
aI1
aI0
aI0
aI2
aI0
aI0
aI0
aI0
aa(lp21
I0
aI0
aI0
aI2
aI0
aI0
aI1
aI0
aI0
aI0
aassS'simpleData'
p22
(lp23
(lp24
I4
aI5
aI6
aa(lp25
I3
aI5
aI7
aa(lp26
I3
aI6
aI6
aa(lp27
I4
aI4
aI7
aasS'num_samples'
p28
I3
sS'debug'
p29
I01
sS'variance'
p30
F2.6000000000000001
sS'max_score'
p31
I10
sS'un_mut_mean'
p32
I5
sS'mean'
p33
I5
sb.